
D:\WkPjt\MStory2.0\Mango-Z1.Firmware\Z1.Src007.1ByteTxRx\project\RIDE\obj\zigbee_test.o:     file format elf32-littlearm
D:\WkPjt\MStory2.0\Mango-Z1.Firmware\Z1.Src007.1ByteTxRx\project\RIDE\obj\zigbee_test.o

Disassembly of section .text.led_rx_ok:

00000000 <led_rx_ok>:
led_rx_ok():
D:\WkPjt\MStory2.0\Mango-Z1.Firmware\Z1.Src007.1ByteTxRx\src/zigbee_test.c:203
    Delay(LED_ONOFF_DELAY);
    LED_On_Blue();
}

static void led_rx_ok(void)
{
   0:	b510      	push	{r4, lr}
D:\WkPjt\MStory2.0\Mango-Z1.Firmware\Z1.Src007.1ByteTxRx\src/zigbee_test.c:204
    LED_Off_All();
   2:	f7ff fffe 	bl	0 <LED_Off_All>
D:\WkPjt\MStory2.0\Mango-Z1.Firmware\Z1.Src007.1ByteTxRx\src/zigbee_test.c:206

    LED_On_Yellow();
   6:	f7ff fffe 	bl	0 <LED_On_Yellow>
D:\WkPjt\MStory2.0\Mango-Z1.Firmware\Z1.Src007.1ByteTxRx\src/zigbee_test.c:207
    Delay(LED_ONOFF_DELAY);
   a:	2032      	movs	r0, #50
   c:	f7ff fffe 	bl	0 <Delay>
D:\WkPjt\MStory2.0\Mango-Z1.Firmware\Z1.Src007.1ByteTxRx\src/zigbee_test.c:208
    LED_Off_Yellow();
  10:	f7ff fffe 	bl	0 <LED_Off_Yellow>
D:\WkPjt\MStory2.0\Mango-Z1.Firmware\Z1.Src007.1ByteTxRx\src/zigbee_test.c:209
    Delay(LED_ONOFF_DELAY);
  14:	2032      	movs	r0, #50
  16:	f7ff fffe 	bl	0 <Delay>
D:\WkPjt\MStory2.0\Mango-Z1.Firmware\Z1.Src007.1ByteTxRx\src/zigbee_test.c:210
    LED_On_Yellow();
  1a:	f7ff fffe 	bl	0 <LED_On_Yellow>
D:\WkPjt\MStory2.0\Mango-Z1.Firmware\Z1.Src007.1ByteTxRx\src/zigbee_test.c:211
    Delay(LED_ONOFF_DELAY);
  1e:	2032      	movs	r0, #50
  20:	f7ff fffe 	bl	0 <Delay>
D:\WkPjt\MStory2.0\Mango-Z1.Firmware\Z1.Src007.1ByteTxRx\src/zigbee_test.c:212
    LED_Off_Yellow();
  24:	f7ff fffe 	bl	0 <LED_Off_Yellow>
D:\WkPjt\MStory2.0\Mango-Z1.Firmware\Z1.Src007.1ByteTxRx\src/zigbee_test.c:213
    Delay(LED_ONOFF_DELAY);
  28:	2032      	movs	r0, #50
  2a:	f7ff fffe 	bl	0 <Delay>
D:\WkPjt\MStory2.0\Mango-Z1.Firmware\Z1.Src007.1ByteTxRx\src/zigbee_test.c:214
    LED_On_Yellow();
  2e:	f7ff fffe 	bl	0 <LED_On_Yellow>
D:\WkPjt\MStory2.0\Mango-Z1.Firmware\Z1.Src007.1ByteTxRx\src/zigbee_test.c:215
}
  32:	bd10      	pop	{r4, pc}
Disassembly of section .text.led_txrx_error:

00000000 <led_txrx_error>:
led_txrx_error():
D:\WkPjt\MStory2.0\Mango-Z1.Firmware\Z1.Src007.1ByteTxRx\src/zigbee_test.c:218

static void led_txrx_error(void)
{
   0:	b510      	push	{r4, lr}
D:\WkPjt\MStory2.0\Mango-Z1.Firmware\Z1.Src007.1ByteTxRx\src/zigbee_test.c:219
    LED_Off_All();
   2:	f7ff fffe 	bl	0 <LED_Off_All>
D:\WkPjt\MStory2.0\Mango-Z1.Firmware\Z1.Src007.1ByteTxRx\src/zigbee_test.c:221

    LED_On_Red();
   6:	f7ff fffe 	bl	0 <LED_On_Red>
D:\WkPjt\MStory2.0\Mango-Z1.Firmware\Z1.Src007.1ByteTxRx\src/zigbee_test.c:222
    Delay(LED_ONOFF_DELAY);
   a:	2032      	movs	r0, #50
   c:	f7ff fffe 	bl	0 <Delay>
D:\WkPjt\MStory2.0\Mango-Z1.Firmware\Z1.Src007.1ByteTxRx\src/zigbee_test.c:223
    LED_Off_Red();
  10:	f7ff fffe 	bl	0 <LED_Off_Red>
D:\WkPjt\MStory2.0\Mango-Z1.Firmware\Z1.Src007.1ByteTxRx\src/zigbee_test.c:224
    Delay(LED_ONOFF_DELAY);
  14:	2032      	movs	r0, #50
  16:	f7ff fffe 	bl	0 <Delay>
D:\WkPjt\MStory2.0\Mango-Z1.Firmware\Z1.Src007.1ByteTxRx\src/zigbee_test.c:225
    LED_On_Red();
  1a:	f7ff fffe 	bl	0 <LED_On_Red>
D:\WkPjt\MStory2.0\Mango-Z1.Firmware\Z1.Src007.1ByteTxRx\src/zigbee_test.c:226
    Delay(LED_ONOFF_DELAY);
  1e:	2032      	movs	r0, #50
  20:	f7ff fffe 	bl	0 <Delay>
D:\WkPjt\MStory2.0\Mango-Z1.Firmware\Z1.Src007.1ByteTxRx\src/zigbee_test.c:227
    LED_Off_Red();
  24:	f7ff fffe 	bl	0 <LED_Off_Red>
D:\WkPjt\MStory2.0\Mango-Z1.Firmware\Z1.Src007.1ByteTxRx\src/zigbee_test.c:228
    Delay(LED_ONOFF_DELAY);
  28:	2032      	movs	r0, #50
  2a:	f7ff fffe 	bl	0 <Delay>
D:\WkPjt\MStory2.0\Mango-Z1.Firmware\Z1.Src007.1ByteTxRx\src/zigbee_test.c:229
    LED_On_Red();
  2e:	f7ff fffe 	bl	0 <LED_On_Red>
D:\WkPjt\MStory2.0\Mango-Z1.Firmware\Z1.Src007.1ByteTxRx\src/zigbee_test.c:230
}
  32:	bd10      	pop	{r4, pc}
Disassembly of section .text.led_tx_ok:

00000000 <led_tx_ok>:
led_tx_ok():
D:\WkPjt\MStory2.0\Mango-Z1.Firmware\Z1.Src007.1ByteTxRx\src/zigbee_test.c:188
};

#define LED_ONOFF_DELAY  50

static void led_tx_ok(void)
{
   0:	b510      	push	{r4, lr}
D:\WkPjt\MStory2.0\Mango-Z1.Firmware\Z1.Src007.1ByteTxRx\src/zigbee_test.c:189
    LED_Off_All();
   2:	f7ff fffe 	bl	0 <LED_Off_All>
D:\WkPjt\MStory2.0\Mango-Z1.Firmware\Z1.Src007.1ByteTxRx\src/zigbee_test.c:191

    LED_On_Blue();
   6:	f7ff fffe 	bl	0 <LED_On_Blue>
D:\WkPjt\MStory2.0\Mango-Z1.Firmware\Z1.Src007.1ByteTxRx\src/zigbee_test.c:192
    Delay(LED_ONOFF_DELAY);
   a:	2032      	movs	r0, #50
   c:	f7ff fffe 	bl	0 <Delay>
D:\WkPjt\MStory2.0\Mango-Z1.Firmware\Z1.Src007.1ByteTxRx\src/zigbee_test.c:193
    LED_Off_Blue();
  10:	f7ff fffe 	bl	0 <LED_Off_Blue>
D:\WkPjt\MStory2.0\Mango-Z1.Firmware\Z1.Src007.1ByteTxRx\src/zigbee_test.c:194
    Delay(LED_ONOFF_DELAY);
  14:	2032      	movs	r0, #50
  16:	f7ff fffe 	bl	0 <Delay>
D:\WkPjt\MStory2.0\Mango-Z1.Firmware\Z1.Src007.1ByteTxRx\src/zigbee_test.c:195
    LED_On_Blue();
  1a:	f7ff fffe 	bl	0 <LED_On_Blue>
D:\WkPjt\MStory2.0\Mango-Z1.Firmware\Z1.Src007.1ByteTxRx\src/zigbee_test.c:196
    Delay(LED_ONOFF_DELAY);
  1e:	2032      	movs	r0, #50
  20:	f7ff fffe 	bl	0 <Delay>
D:\WkPjt\MStory2.0\Mango-Z1.Firmware\Z1.Src007.1ByteTxRx\src/zigbee_test.c:197
    LED_Off_Blue();
  24:	f7ff fffe 	bl	0 <LED_Off_Blue>
D:\WkPjt\MStory2.0\Mango-Z1.Firmware\Z1.Src007.1ByteTxRx\src/zigbee_test.c:198
    Delay(LED_ONOFF_DELAY);
  28:	2032      	movs	r0, #50
  2a:	f7ff fffe 	bl	0 <Delay>
D:\WkPjt\MStory2.0\Mango-Z1.Firmware\Z1.Src007.1ByteTxRx\src/zigbee_test.c:199
    LED_On_Blue();
  2e:	f7ff fffe 	bl	0 <LED_On_Blue>
D:\WkPjt\MStory2.0\Mango-Z1.Firmware\Z1.Src007.1ByteTxRx\src/zigbee_test.c:200
}
  32:	bd10      	pop	{r4, pc}
Disassembly of section .text.ZigBee_Test:

00000000 <ZigBee_Test>:
ZigBee_Test():
D:\WkPjt\MStory2.0\Mango-Z1.Firmware\Z1.Src007.1ByteTxRx\src/zigbee_test.c:604
        txPacket.seqNumber = 0;
    }
}

void ZigBee_Test(void)
{
   0:	e92d 47f0 	stmdb	sp!, {r4, r5, r6, r7, r8, r9, sl, lr}
D:\WkPjt\MStory2.0\Mango-Z1.Firmware\Z1.Src007.1ByteTxRx\src/zigbee_test.c:608
    u8 ch;
    int channelNum;

    DEBUG_MSG_FUNC_START;
   4:	48b4      	ldr	r0, [pc, #720]	(2d8 <ZigBee_Test+0x2d8>)
D:\WkPjt\MStory2.0\Mango-Z1.Firmware\Z1.Src007.1ByteTxRx\src/zigbee_test.c:604
        txPacket.seqNumber = 0;
    }
}

void ZigBee_Test(void)
{
   6:	b096      	sub	sp, #88
D:\WkPjt\MStory2.0\Mango-Z1.Firmware\Z1.Src007.1ByteTxRx\src/zigbee_test.c:608
    u8 ch;
    int channelNum;

    DEBUG_MSG_FUNC_START;
   8:	f7ff fffe 	bl	0 <DebugMsg_FunctionStart>
D:\WkPjt\MStory2.0\Mango-Z1.Firmware\Z1.Src007.1ByteTxRx\src/zigbee_test.c:610

    printf("\n- Select Channel -\n");
   c:	48b3      	ldr	r0, [pc, #716]	(2d0 <puts+0x2d0>)
   e:	f7ff fffe 	bl	0 <puts>
D:\WkPjt\MStory2.0\Mango-Z1.Firmware\Z1.Src007.1ByteTxRx\src/zigbee_test.c:611
    printf("<a> channel 11, <b> channel 12, <c> channel 13, <d> channel 14\n");
  12:	48b3      	ldr	r0, [pc, #716]	(2d0 <puts+0x2d0>)
  14:	f7ff fffe 	bl	0 <puts>
D:\WkPjt\MStory2.0\Mango-Z1.Firmware\Z1.Src007.1ByteTxRx\src/zigbee_test.c:612
    printf("<e> channel 15, <f> channel 16, <g> channel 17, <h> channel 18\n");
  18:	48b2      	ldr	r0, [pc, #712]	(2cc <puts+0x2cc>)
  1a:	f7ff fffe 	bl	0 <puts>
D:\WkPjt\MStory2.0\Mango-Z1.Firmware\Z1.Src007.1ByteTxRx\src/zigbee_test.c:613
    printf("<i> channel 19, <j> channel 20, <k> channel 21, <l> channel 22\n");
  1e:	48b2      	ldr	r0, [pc, #712]	(2cc <puts+0x2cc>)
  20:	f7ff fffe 	bl	0 <puts>
D:\WkPjt\MStory2.0\Mango-Z1.Firmware\Z1.Src007.1ByteTxRx\src/zigbee_test.c:614
    printf("<m> channel 23, <n> channel 24, <o> channel 25, <p> channel 26\n");
  24:	48b1      	ldr	r0, [pc, #708]	(2c8 <puts+0x2c8>)
  26:	f7ff fffe 	bl	0 <puts>
D:\WkPjt\MStory2.0\Mango-Z1.Firmware\Z1.Src007.1ByteTxRx\src/zigbee_test.c:616

    ch = USART_GetCharacter(USART1);
  2a:	48b1      	ldr	r0, [pc, #708]	(2c8 <USART_GetCharacter+0x2c8>)
  2c:	f7ff fffe 	bl	0 <USART_GetCharacter>
  30:	4604      	mov	r4, r0
D:\WkPjt\MStory2.0\Mango-Z1.Firmware\Z1.Src007.1ByteTxRx\src/zigbee_test.c:619
    printf(" is selected\n");

    channelNum = MIN_CHANNEL + ((int) (ch - 'a'));
  32:	f1a4 0556 	sub.w	r5, r4, #86	; 0x56
D:\WkPjt\MStory2.0\Mango-Z1.Firmware\Z1.Src007.1ByteTxRx\src/zigbee_test.c:617
    printf("<e> channel 15, <f> channel 16, <g> channel 17, <h> channel 18\n");
    printf("<i> channel 19, <j> channel 20, <k> channel 21, <l> channel 22\n");
    printf("<m> channel 23, <n> channel 24, <o> channel 25, <p> channel 26\n");

    ch = USART_GetCharacter(USART1);
    printf(" is selected\n");
  36:	48af      	ldr	r0, [pc, #700]	(2c0 <puts+0x2c0>)
  38:	f7ff fffe 	bl	0 <puts>
D:\WkPjt\MStory2.0\Mango-Z1.Firmware\Z1.Src007.1ByteTxRx\src/zigbee_test.c:622

    channelNum = MIN_CHANNEL + ((int) (ch - 'a'));
    printf("selected channel is %d\n", channelNum);
    
    if((channelNum >= MIN_CHANNEL) && (channelNum <= MAX_CHANNEL))
  3c:	3c61      	subs	r4, #97
D:\WkPjt\MStory2.0\Mango-Z1.Firmware\Z1.Src007.1ByteTxRx\src/zigbee_test.c:620

    ch = USART_GetCharacter(USART1);
    printf(" is selected\n");

    channelNum = MIN_CHANNEL + ((int) (ch - 'a'));
    printf("selected channel is %d\n", channelNum);
  3e:	48ae      	ldr	r0, [pc, #696]	(2f8 <ZigBee_Test+0x2f8>)
  40:	4629      	mov	r1, r5
  42:	f7ff fffe 	bl	0 <printf>
D:\WkPjt\MStory2.0\Mango-Z1.Firmware\Z1.Src007.1ByteTxRx\src/zigbee_test.c:622
    
    if((channelNum >= MIN_CHANNEL) && (channelNum <= MAX_CHANNEL))
  46:	2c0f      	cmp	r4, #15
  48:	4cac      	ldr	r4, [pc, #688]	(2fc <ZigBee_Test+0x2fc>)
  4a:	d801      	bhi.n	50 <ZigBee_Test+0x50>
D:\WkPjt\MStory2.0\Mango-Z1.Firmware\Z1.Src007.1ByteTxRx\src/zigbee_test.c:624
    {
        basicRfConfig.channel = channelNum;
  4c:	7125      	strb	r5, [r4, #4]
  4e:	e005      	b.n	5c <ZigBee_Test+0x5c>
D:\WkPjt\MStory2.0\Mango-Z1.Firmware\Z1.Src007.1ByteTxRx\src/zigbee_test.c:628
    }
    else
    {
        printf("default channel is %d\n", RF_CHANNEL);
  50:	48ab      	ldr	r0, [pc, #684]	(300 <ZigBee_Test+0x300>)
  52:	2119      	movs	r1, #25
  54:	f7ff fffe 	bl	0 <printf>
D:\WkPjt\MStory2.0\Mango-Z1.Firmware\Z1.Src007.1ByteTxRx\src/zigbee_test.c:629
        basicRfConfig.channel = RF_CHANNEL;
  58:	2319      	movs	r3, #25
  5a:	7123      	strb	r3, [r4, #4]
D:\WkPjt\MStory2.0\Mango-Z1.Firmware\Z1.Src007.1ByteTxRx\src/zigbee_test.c:634
    }

    // F = 2405 + 5 * (k - 11) [MHz] k ¡ô[11,26]
    printf("frequency range is from %d MHz to %d MHz\n", 2405, 2480);
    printf("selected frequency is %d MHz\n",
  5c:	4ca7      	ldr	r4, [pc, #668]	(2fc <ZigBee_Test+0x2fc>)
D:\WkPjt\MStory2.0\Mango-Z1.Firmware\Z1.Src007.1ByteTxRx\src/zigbee_test.c:633
        printf("default channel is %d\n", RF_CHANNEL);
        basicRfConfig.channel = RF_CHANNEL;
    }

    // F = 2405 + 5 * (k - 11) [MHz] k ¡ô[11,26]
    printf("frequency range is from %d MHz to %d MHz\n", 2405, 2480);
  5e:	f44f 621b 	mov.w	r2, #2480	; 0x9b0
  62:	f640 1165 	movw	r1, #2405	; 0x965
  66:	48a7      	ldr	r0, [pc, #668]	(2a0 <printf+0x2a0>)
  68:	f7ff fffe 	bl	0 <printf>
D:\WkPjt\MStory2.0\Mango-Z1.Firmware\Z1.Src007.1ByteTxRx\src/zigbee_test.c:634
    printf("selected frequency is %d MHz\n",
  6c:	7923      	ldrb	r3, [r4, #4]
  6e:	2105      	movs	r1, #5
  70:	4359      	muls	r1, r3
  72:	f501 6112 	add.w	r1, r1, #2336	; 0x920
  76:	310e      	adds	r1, #14
  78:	48a3      	ldr	r0, [pc, #652]	(308 <ZigBee_Test+0x308>)
  7a:	f7ff fffe 	bl	0 <printf>
D:\WkPjt\MStory2.0\Mango-Z1.Firmware\Z1.Src007.1ByteTxRx\src/zigbee_test.c:638
           2405 + 5 * (basicRfConfig.channel - MIN_CHANNEL));

    // Config basicRF
    basicRfConfig.panId = PAN_ID;
  7e:	f242 0207 	movw	r2, #8199	; 0x2007
D:\WkPjt\MStory2.0\Mango-Z1.Firmware\Z1.Src007.1ByteTxRx\src/zigbee_test.c:641

#if 1
    basicRfConfig.ackRequest = TRUE;
  82:	2301      	movs	r3, #1
D:\WkPjt\MStory2.0\Mango-Z1.Firmware\Z1.Src007.1ByteTxRx\src/zigbee_test.c:638
    printf("frequency range is from %d MHz to %d MHz\n", 2405, 2480);
    printf("selected frequency is %d MHz\n",
           2405 + 5 * (basicRfConfig.channel - MIN_CHANNEL));

    // Config basicRF
    basicRfConfig.panId = PAN_ID;
  84:	8062      	strh	r2, [r4, #2]
D:\WkPjt\MStory2.0\Mango-Z1.Firmware\Z1.Src007.1ByteTxRx\src/zigbee_test.c:641

#if 1
    basicRfConfig.ackRequest = TRUE;
  86:	7163      	strb	r3, [r4, #5]
D:\WkPjt\MStory2.0\Mango-Z1.Firmware\Z1.Src007.1ByteTxRx\src/zigbee_test.c:650

#ifdef SECURITY_CCM
    basicRfConfig.securityKey = key;
#endif

    SPIx_Init();
  88:	f7ff fffe 	bl	0 <SPIx_Init>
D:\WkPjt\MStory2.0\Mango-Z1.Firmware\Z1.Src007.1ByteTxRx\src/zigbee_test.c:652

    halRfInit();
  8c:	f7ff fffe 	bl	0 <halRfInit>
D:\WkPjt\MStory2.0\Mango-Z1.Firmware\Z1.Src007.1ByteTxRx\src/zigbee_test.c:654

    printf("chipid : 0x%x\n", halRfGetChipId());
  90:	f7ff fffe 	bl	0 <halRfGetChipId>
  94:	4601      	mov	r1, r0
  96:	489d      	ldr	r0, [pc, #628]	(30c <ZigBee_Test+0x30c>)
  98:	f7ff fffe 	bl	0 <printf>
D:\WkPjt\MStory2.0\Mango-Z1.Firmware\Z1.Src007.1ByteTxRx\src/zigbee_test.c:655
    printf("version : 0x%x\n", halRfGetChipVer());
  9c:	f7ff fffe 	bl	0 <halRfGetChipVer>
  a0:	4601      	mov	r1, r0
  a2:	489b      	ldr	r0, [pc, #620]	(310 <ZigBee_Test+0x310>)
  a4:	f7ff fffe 	bl	0 <printf>
D:\WkPjt\MStory2.0\Mango-Z1.Firmware\Z1.Src007.1ByteTxRx\src/zigbee_test.c:659

    while(1)
    {
        printf("\n\n---------------------\n");
  a8:	489a      	ldr	r0, [pc, #616]	(26c <puts+0x26c>)
  aa:	f7ff fffe 	bl	0 <puts>
D:\WkPjt\MStory2.0\Mango-Z1.Firmware\Z1.Src007.1ByteTxRx\src/zigbee_test.c:660
        printf("Press menu key\n");
  ae:	489a      	ldr	r0, [pc, #616]	(26c <puts+0x26c>)
  b0:	f7ff fffe 	bl	0 <puts>
D:\WkPjt\MStory2.0\Mango-Z1.Firmware\Z1.Src007.1ByteTxRx\src/zigbee_test.c:661
        printf("---------------------\n");
  b4:	4899      	ldr	r0, [pc, #612]	(268 <puts+0x268>)
  b6:	f7ff fffe 	bl	0 <puts>
D:\WkPjt\MStory2.0\Mango-Z1.Firmware\Z1.Src007.1ByteTxRx\src/zigbee_test.c:662
        printf("1> Print Registers: FREG\n");
  ba:	4899      	ldr	r0, [pc, #612]	(268 <puts+0x268>)
  bc:	f7ff fffe 	bl	0 <puts>
D:\WkPjt\MStory2.0\Mango-Z1.Firmware\Z1.Src007.1ByteTxRx\src/zigbee_test.c:663
        printf("2> Print Registers: SREG\n");
  c0:	4898      	ldr	r0, [pc, #608]	(264 <puts+0x264>)
  c2:	f7ff fffe 	bl	0 <puts>
D:\WkPjt\MStory2.0\Mango-Z1.Firmware\Z1.Src007.1ByteTxRx\src/zigbee_test.c:664
        printf("---------------------\n");
  c6:	4895      	ldr	r0, [pc, #596]	(258 <puts+0x258>)
  c8:	f7ff fffe 	bl	0 <puts>
D:\WkPjt\MStory2.0\Mango-Z1.Firmware\Z1.Src007.1ByteTxRx\src/zigbee_test.c:665
        printf("3> appLight\n");
  cc:	4896      	ldr	r0, [pc, #600]	(25c <puts+0x25c>)
  ce:	f7ff fffe 	bl	0 <puts>
D:\WkPjt\MStory2.0\Mango-Z1.Firmware\Z1.Src007.1ByteTxRx\src/zigbee_test.c:666
        printf("4> appSwitch\n");
  d2:	4896      	ldr	r0, [pc, #600]	(25c <puts+0x25c>)
  d4:	f7ff fffe 	bl	0 <puts>
D:\WkPjt\MStory2.0\Mango-Z1.Firmware\Z1.Src007.1ByteTxRx\src/zigbee_test.c:667
        printf("---------------------\n");
  d8:	4890      	ldr	r0, [pc, #576]	(244 <puts+0x244>)
  da:	f7ff fffe 	bl	0 <puts>
D:\WkPjt\MStory2.0\Mango-Z1.Firmware\Z1.Src007.1ByteTxRx\src/zigbee_test.c:668
        printf("5> PER Test appReceiver\n");
  de:	4894      	ldr	r0, [pc, #592]	(254 <puts+0x254>)
  e0:	f7ff fffe 	bl	0 <puts>
D:\WkPjt\MStory2.0\Mango-Z1.Firmware\Z1.Src007.1ByteTxRx\src/zigbee_test.c:669
        printf("6> PER Test appTransmitter\n");
  e4:	4893      	ldr	r0, [pc, #588]	(250 <puts+0x250>)
  e6:	f7ff fffe 	bl	0 <puts>
D:\WkPjt\MStory2.0\Mango-Z1.Firmware\Z1.Src007.1ByteTxRx\src/zigbee_test.c:670
        printf("---------------------\n");
  ea:	488c      	ldr	r0, [pc, #560]	(234 <puts+0x234>)
  ec:	f7ff fffe 	bl	0 <puts>
D:\WkPjt\MStory2.0\Mango-Z1.Firmware\Z1.Src007.1ByteTxRx\src/zigbee_test.c:671
        printf("x> quit\n\n");
  f0:	4891      	ldr	r0, [pc, #580]	(248 <puts+0x248>)
  f2:	f7ff fffe 	bl	0 <puts>
D:\WkPjt\MStory2.0\Mango-Z1.Firmware\Z1.Src007.1ByteTxRx\src/zigbee_test.c:674

#if 1
        ch = USART_GetCharacter(USART1);
  f6:	487e      	ldr	r0, [pc, #504]	(1fc <USART_GetCharacter+0x1fc>)
  f8:	f7ff fffe 	bl	0 <USART_GetCharacter>
  fc:	4605      	mov	r5, r0
D:\WkPjt\MStory2.0\Mango-Z1.Firmware\Z1.Src007.1ByteTxRx\src/zigbee_test.c:679
#else
        ch = '4';
#endif

        printf(" is selected\n");
  fe:	487d      	ldr	r0, [pc, #500]	(2f4 <ZigBee_Test+0x2f4>)
 100:	f7ff fffe 	bl	0 <puts>
D:\WkPjt\MStory2.0\Mango-Z1.Firmware\Z1.Src007.1ByteTxRx\src/zigbee_test.c:681

        switch((char)ch)
 104:	b26b      	sxtb	r3, r5
 106:	3b31      	subs	r3, #49
 108:	2b05      	cmp	r3, #5
 10a:	f200 81d3 	bhi.w	4b4 <ZigBee_Test+0x4b4>
 10e:	e8df f013 	tbh	[pc, r3, lsl #1]
 112:	0008      	.short	0x0008
 114:	002a0006 	.word	0x002a0006
 118:	00a20066 	.word	0x00a20066
 11c:	0165      	.short	0x0165
 11e:	4c87      	ldr	r4, [pc, #540]	(33c <ZigBee_Test+0x33c>)
 120:	e01b      	b.n	15a <ZigBee_Test+0x15a>
 122:	4c87      	ldr	r4, [pc, #540]	(340 <ZigBee_Test+0x340>)
 124:	e009      	b.n	13a <ZigBee_Test+0x13a>
appPrintRfRegs_FREG():
D:\WkPjt\MStory2.0\Mango-Z1.Firmware\Z1.Src007.1ByteTxRx\src/zigbee_test.c:266

    p = regLookup_FREG;

    while ( p->iRegNum != 0xFF) {
        // Read radio registers
        iRegVal = CC2520_REGRD8(p->iRegNum);
 126:	f7ff fffe 	bl	0 <CC2520_REGRD8>
D:\WkPjt\MStory2.0\Mango-Z1.Firmware\Z1.Src007.1ByteTxRx\src/zigbee_test.c:269

        // Print name and contents
        printf("0x%02X %-20s : 0x%02X\n",
 12a:	f814 1c10 	ldrb.w	r1, [r4, #-16]
 12e:	b283      	uxth	r3, r0
 130:	f854 2c0c 	ldr.w	r2, [r4, #-12]
 134:	4883      	ldr	r0, [pc, #524]	(210 <printf+0x210>)
 136:	f7ff fffe 	bl	0 <printf>
D:\WkPjt\MStory2.0\Mango-Z1.Firmware\Z1.Src007.1ByteTxRx\src/zigbee_test.c:264
    regKvp_t *p;
    uint16 iRegVal;

    p = regLookup_FREG;

    while ( p->iRegNum != 0xFF) {
 13a:	f814 0c08 	ldrb.w	r0, [r4, #-8]
 13e:	3408      	adds	r4, #8
 140:	28ff      	cmp	r0, #255
 142:	d1f0      	bne.n	126 <ZigBee_Test+0x126>
 144:	e1b6      	b.n	4b4 <ZigBee_Test+0x4b4>
appPrintRfRegs_SREG():
D:\WkPjt\MStory2.0\Mango-Z1.Firmware\Z1.Src007.1ByteTxRx\src/zigbee_test.c:247

    p = regLookup_SREG;

    while ( p->iRegNum != 0xFF) {
        // Read radio registers
        iRegVal = CC2520_MEMRD8(p->iRegNum);
 146:	f7ff fffe 	bl	0 <CC2520_MEMRD8>
D:\WkPjt\MStory2.0\Mango-Z1.Firmware\Z1.Src007.1ByteTxRx\src/zigbee_test.c:250

        // Print name and contents
        printf("0x%02X %-20s : 0x%02X\n",
 14a:	f814 1c10 	ldrb.w	r1, [r4, #-16]
 14e:	b283      	uxth	r3, r0
 150:	f854 2c0c 	ldr.w	r2, [r4, #-12]
 154:	487b      	ldr	r0, [pc, #492]	(1f0 <printf+0x1f0>)
 156:	f7ff fffe 	bl	0 <printf>
D:\WkPjt\MStory2.0\Mango-Z1.Firmware\Z1.Src007.1ByteTxRx\src/zigbee_test.c:245
    regKvp_t *p;
    uint16 iRegVal;

    p = regLookup_SREG;

    while ( p->iRegNum != 0xFF) {
 15a:	f814 0c08 	ldrb.w	r0, [r4, #-8]
 15e:	3408      	adds	r4, #8
 160:	28ff      	cmp	r0, #255
 162:	d1f0      	bne.n	146 <ZigBee_Test+0x146>
 164:	e1a6      	b.n	4b4 <ZigBee_Test+0x4b4>
appLight():
D:\WkPjt\MStory2.0\Mango-Z1.Firmware\Z1.Src007.1ByteTxRx\src/zigbee_test.c:289
*
* @return      none
*/
static void appLight(void)
{
    DEBUG_MSG_FUNC_START;
 166:	4878      	ldr	r0, [pc, #480]	(348 <ZigBee_Test+0x348>)
 168:	f7ff fffe 	bl	0 <DebugMsg_FunctionStart>
D:\WkPjt\MStory2.0\Mango-Z1.Firmware\Z1.Src007.1ByteTxRx\src/zigbee_test.c:292
    
    // Initialize BasicRF
    basicRfConfig.myAddr = RX_ADDR;
 16c:	4863      	ldr	r0, [pc, #396]	(2fc <ZigBee_Test+0x2fc>)
 16e:	f64b 63ef 	movw	r3, #48879	; 0xbeef
 172:	8003      	strh	r3, [r0, #0]
D:\WkPjt\MStory2.0\Mango-Z1.Firmware\Z1.Src007.1ByteTxRx\src/zigbee_test.c:293
    if(basicRfInit(&basicRfConfig) == HAL_RF_FAILED) {
 174:	f7ff fffe 	bl	0 <basicRfInit>
 178:	2801      	cmp	r0, #1
 17a:	d104      	bne.n	186 <ZigBee_Test+0x186>
D:\WkPjt\MStory2.0\Mango-Z1.Firmware\Z1.Src007.1ByteTxRx\src/zigbee_test.c:294
        DEBUG_MSG_ASSERT;
 17c:	4872      	ldr	r0, [pc, #456]	(348 <ZigBee_Test+0x348>)
 17e:	f44f 7193 	mov.w	r1, #294	; 0x126
 182:	f7ff fffe 	bl	0 <DebugMsg_Assert>
D:\WkPjt\MStory2.0\Mango-Z1.Firmware\Z1.Src007.1ByteTxRx\src/zigbee_test.c:296
    }
    basicRfReceiveOn();
 186:	f7ff fffe 	bl	0 <basicRfReceiveOn>
D:\WkPjt\MStory2.0\Mango-Z1.Firmware\Z1.Src007.1ByteTxRx\src/zigbee_test.c:298

    DEBUG_MSG_FUNC_NOTIFY;
 18a:	486f      	ldr	r0, [pc, #444]	(348 <ZigBee_Test+0x348>)
 18c:	f44f 7195 	mov.w	r1, #298	; 0x12a
 190:	f7ff fffe 	bl	0 <DebugMsg_FunctionNotify>
D:\WkPjt\MStory2.0\Mango-Z1.Firmware\Z1.Src007.1ByteTxRx\src/zigbee_test.c:302

    // Main loop
    while (TRUE) {
        while(!basicRfPacketIsReady());
 194:	f7ff fffe 	bl	0 <basicRfPacketIsReady>
 198:	2800      	cmp	r0, #0
 19a:	d0fb      	beq.n	194 <ZigBee_Test+0x194>
D:\WkPjt\MStory2.0\Mango-Z1.Firmware\Z1.Src007.1ByteTxRx\src/zigbee_test.c:306

        DEBUG_MSG_FUNC_NOTIFY;

        if(basicRfReceive(pRxData, APP_PAYLOAD_LENGTH, NULL)>0) {
 19c:	4c57      	ldr	r4, [pc, #348]	(2fc <ZigBee_Test+0x2fc>)
D:\WkPjt\MStory2.0\Mango-Z1.Firmware\Z1.Src007.1ByteTxRx\src/zigbee_test.c:304

    // Main loop
    while (TRUE) {
        while(!basicRfPacketIsReady());

        DEBUG_MSG_FUNC_NOTIFY;
 19e:	486a      	ldr	r0, [pc, #424]	(348 <ZigBee_Test+0x348>)
 1a0:	f44f 7198 	mov.w	r1, #304	; 0x130
 1a4:	f7ff fffe 	bl	0 <DebugMsg_FunctionNotify>
D:\WkPjt\MStory2.0\Mango-Z1.Firmware\Z1.Src007.1ByteTxRx\src/zigbee_test.c:306

        if(basicRfReceive(pRxData, APP_PAYLOAD_LENGTH, NULL)>0) {
 1a8:	1da0      	adds	r0, r4, #6
 1aa:	2101      	movs	r1, #1
 1ac:	2200      	movs	r2, #0
 1ae:	f7ff fffe 	bl	0 <basicRfReceive>
 1b2:	b160      	cbz	r0, 1ce <ZigBee_Test+0x1ce>
D:\WkPjt\MStory2.0\Mango-Z1.Firmware\Z1.Src007.1ByteTxRx\src/zigbee_test.c:307
            printf("pRxData[0]: %c\n", pRxData[0]);
 1b4:	79a1      	ldrb	r1, [r4, #6]
 1b6:	4865      	ldr	r0, [pc, #404]	(34c <ZigBee_Test+0x34c>)
 1b8:	f7ff fffe 	bl	0 <printf>
D:\WkPjt\MStory2.0\Mango-Z1.Firmware\Z1.Src007.1ByteTxRx\src/zigbee_test.c:309
#ifdef DEBUG_MSG_LEVEL0
            printf("basicRfGetRssi() val: %d\n", basicRfGetRssi());
 1bc:	f7ff fffe 	bl	0 <basicRfGetRssi>
 1c0:	b241      	sxtb	r1, r0
 1c2:	4863      	ldr	r0, [pc, #396]	(350 <ZigBee_Test+0x350>)
 1c4:	f7ff fffe 	bl	0 <printf>
D:\WkPjt\MStory2.0\Mango-Z1.Firmware\Z1.Src007.1ByteTxRx\src/zigbee_test.c:311
#endif
            led_rx_ok();
 1c8:	f7ff fffe 	bl	0 <ZigBee_Test>
 1cc:	e7e2      	b.n	194 <ZigBee_Test+0x194>
D:\WkPjt\MStory2.0\Mango-Z1.Firmware\Z1.Src007.1ByteTxRx\src/zigbee_test.c:315
        }
        else
        {
            DEBUG_MSG_FUNC_ERROR;
 1ce:	485e      	ldr	r0, [pc, #376]	(348 <ZigBee_Test+0x348>)
 1d0:	f240 113b 	movw	r1, #315	; 0x13b
 1d4:	f7ff fffe 	bl	0 <DebugMsg_FunctionError>
D:\WkPjt\MStory2.0\Mango-Z1.Firmware\Z1.Src007.1ByteTxRx\src/zigbee_test.c:316
            led_txrx_error();
 1d8:	f7ff fffe 	bl	0 <ZigBee_Test>
 1dc:	e7da      	b.n	194 <ZigBee_Test+0x194>
appSwitch():
D:\WkPjt\MStory2.0\Mango-Z1.Firmware\Z1.Src007.1ByteTxRx\src/zigbee_test.c:339
*/
static void appSwitch(void)
{
    uint8 status;

    DEBUG_MSG_FUNC_START;
 1de:	485d      	ldr	r0, [pc, #372]	(354 <ZigBee_Test+0x354>)
 1e0:	f7ff fffe 	bl	0 <DebugMsg_FunctionStart>
D:\WkPjt\MStory2.0\Mango-Z1.Firmware\Z1.Src007.1ByteTxRx\src/zigbee_test.c:342

    // Initialize BasicRF
    basicRfConfig.myAddr = TX_ADDR;
 1e4:	4845      	ldr	r0, [pc, #276]	(2fc <ZigBee_Test+0x2fc>)
 1e6:	f242 5220 	movw	r2, #9504	; 0x2520
 1ea:	8002      	strh	r2, [r0, #0]
D:\WkPjt\MStory2.0\Mango-Z1.Firmware\Z1.Src007.1ByteTxRx\src/zigbee_test.c:343
    if(basicRfInit(&basicRfConfig) == HAL_RF_FAILED) {
 1ec:	f7ff fffe 	bl	0 <basicRfInit>
 1f0:	2801      	cmp	r0, #1
 1f2:	d104      	bne.n	1fe <ZigBee_Test+0x1fe>
D:\WkPjt\MStory2.0\Mango-Z1.Firmware\Z1.Src007.1ByteTxRx\src/zigbee_test.c:344
        DEBUG_MSG_ASSERT;
 1f4:	4857      	ldr	r0, [pc, #348]	(354 <ZigBee_Test+0x354>)
 1f6:	f44f 71ac 	mov.w	r1, #344	; 0x158
 1fa:	f7ff fffe 	bl	0 <DebugMsg_Assert>
D:\WkPjt\MStory2.0\Mango-Z1.Firmware\Z1.Src007.1ByteTxRx\src/zigbee_test.c:348
    }

    // Keep Receiver off when not needed to save power
    basicRfReceiveOff();
 1fe:	f7ff fffe 	bl	0 <basicRfReceiveOff>
D:\WkPjt\MStory2.0\Mango-Z1.Firmware\Z1.Src007.1ByteTxRx\src/zigbee_test.c:351

    // Set TX output power
    CC2520_REGWR8(CC2520_TXPOWER, CC2520_TXPOWER_4_DBM);
 202:	2030      	movs	r0, #48
 204:	21f7      	movs	r1, #247
 206:	f7ff fffe 	bl	0 <CC2520_REGWR8>
D:\WkPjt\MStory2.0\Mango-Z1.Firmware\Z1.Src007.1ByteTxRx\src/zigbee_test.c:353

    pTxData[0] = 'a' - 1;
 20a:	4b3c      	ldr	r3, [pc, #240]	(2fc <ZigBee_Test+0x2fc>)
 20c:	2260      	movs	r2, #96
 20e:	71da      	strb	r2, [r3, #7]
D:\WkPjt\MStory2.0\Mango-Z1.Firmware\Z1.Src007.1ByteTxRx\src/zigbee_test.c:357

    // Main loop
    while (TRUE) {
        Delay(500);
 210:	f44f 70fa 	mov.w	r0, #500	; 0x1f4
 214:	f7ff fffe 	bl	0 <Delay>
D:\WkPjt\MStory2.0\Mango-Z1.Firmware\Z1.Src007.1ByteTxRx\src/zigbee_test.c:358
        if(pTxData[0] == 'z')
 218:	4a38      	ldr	r2, [pc, #224]	(2fc <ZigBee_Test+0x2fc>)
 21a:	79d3      	ldrb	r3, [r2, #7]
 21c:	2b7a      	cmp	r3, #122
 21e:	d101      	bne.n	224 <ZigBee_Test+0x224>
D:\WkPjt\MStory2.0\Mango-Z1.Firmware\Z1.Src007.1ByteTxRx\src/zigbee_test.c:360
        {
            pTxData[0] = 'a';
 220:	2361      	movs	r3, #97
 222:	e000      	b.n	226 <ZigBee_Test+0x226>
D:\WkPjt\MStory2.0\Mango-Z1.Firmware\Z1.Src007.1ByteTxRx\src/zigbee_test.c:364
        }
        else
        {
            pTxData[0] += 1;
 224:	3301      	adds	r3, #1
D:\WkPjt\MStory2.0\Mango-Z1.Firmware\Z1.Src007.1ByteTxRx\src/zigbee_test.c:366
        }
        printf("send data is %c\n", pTxData[0]);
 226:	4c35      	ldr	r4, [pc, #212]	(2fc <ZigBee_Test+0x2fc>)
D:\WkPjt\MStory2.0\Mango-Z1.Firmware\Z1.Src007.1ByteTxRx\src/zigbee_test.c:364
        {
            pTxData[0] = 'a';
        }
        else
        {
            pTxData[0] += 1;
 228:	71d3      	strb	r3, [r2, #7]
D:\WkPjt\MStory2.0\Mango-Z1.Firmware\Z1.Src007.1ByteTxRx\src/zigbee_test.c:366
        }
        printf("send data is %c\n", pTxData[0]);
 22a:	79e1      	ldrb	r1, [r4, #7]
 22c:	484a      	ldr	r0, [pc, #296]	(358 <ZigBee_Test+0x358>)
 22e:	f7ff fffe 	bl	0 <printf>
D:\WkPjt\MStory2.0\Mango-Z1.Firmware\Z1.Src007.1ByteTxRx\src/zigbee_test.c:368

        status = basicRfSendPacket(RX_ADDR, pTxData, APP_PAYLOAD_LENGTH);
 232:	f64b 60ef 	movw	r0, #48879	; 0xbeef
 236:	1de1      	adds	r1, r4, #7
 238:	2201      	movs	r2, #1
 23a:	f7ff fffe 	bl	0 <basicRfSendPacket>
D:\WkPjt\MStory2.0\Mango-Z1.Firmware\Z1.Src007.1ByteTxRx\src/zigbee_test.c:369
        if(HAL_RF_SUCCESS != status)
 23e:	b138      	cbz	r0, 250 <ZigBee_Test+0x250>
D:\WkPjt\MStory2.0\Mango-Z1.Firmware\Z1.Src007.1ByteTxRx\src/zigbee_test.c:371
        {
            DEBUG_MSG_FUNC_ERROR;
 240:	4844      	ldr	r0, [pc, #272]	(354 <ZigBee_Test+0x354>)
 242:	f240 1173 	movw	r1, #371	; 0x173
 246:	f7ff fffe 	bl	0 <DebugMsg_FunctionError>
D:\WkPjt\MStory2.0\Mango-Z1.Firmware\Z1.Src007.1ByteTxRx\src/zigbee_test.c:372
            led_txrx_error();
 24a:	f7ff fffe 	bl	0 <ZigBee_Test>
 24e:	e7df      	b.n	ffffffc2 <regLookup_FREG+0xfffffeca>
D:\WkPjt\MStory2.0\Mango-Z1.Firmware\Z1.Src007.1ByteTxRx\src/zigbee_test.c:376
        }
        else
        {
            led_tx_ok();
 250:	f7ff fffe 	bl	0 <ZigBee_Test>
 254:	e7dc      	b.n	210 <ZigBee_Test+0x210>
perTest_appReceiver():
D:\WkPjt\MStory2.0\Mango-Z1.Firmware\Z1.Src007.1ByteTxRx\src/zigbee_test.c:419
    gain = appSelectGain();
    halRfSetGain(gain);
#endif

    // Initialize BasicRF
    basicRfConfig.myAddr = RX_ADDR;
 256:	4829      	ldr	r0, [pc, #164]	(2fc <ZigBee_Test+0x2fc>)
 258:	f64b 63ef 	movw	r3, #48879	; 0xbeef
 25c:	8003      	strh	r3, [r0, #0]
D:\WkPjt\MStory2.0\Mango-Z1.Firmware\Z1.Src007.1ByteTxRx\src/zigbee_test.c:420
    if(basicRfInit(&basicRfConfig) == HAL_RF_FAILED)
 25e:	f7ff fffe 	bl	0 <basicRfInit>
 262:	2801      	cmp	r0, #1
 264:	d104      	bne.n	270 <ZigBee_Test+0x270>
D:\WkPjt\MStory2.0\Mango-Z1.Firmware\Z1.Src007.1ByteTxRx\src/zigbee_test.c:422
    {
        DEBUG_MSG_ASSERT;
 266:	483d      	ldr	r0, [pc, #244]	(35c <ZigBee_Test+0x35c>)
 268:	f44f 71d3 	mov.w	r1, #422	; 0x1a6
 26c:	f7ff fffe 	bl	0 <DebugMsg_Assert>
D:\WkPjt\MStory2.0\Mango-Z1.Firmware\Z1.Src007.1ByteTxRx\src/zigbee_test.c:403
*/
static void perTest_appReceiver(void)
{
    uint32 iteration = 0;
    uint32 segNumber=0;
    int16 perRssiBuf[RSSI_AVG_WINDOW_SIZE] = {0};    // Ring buffer for RSSI
 270:	2100      	movs	r1, #0
 272:	2240      	movs	r2, #64
 274:	f10d 0016 	add.w	r0, sp, #22	; 0x16
 278:	f7ff fffe 	bl	0 <memset>
D:\WkPjt\MStory2.0\Mango-Z1.Firmware\Z1.Src007.1ByteTxRx\src/zigbee_test.c:424
    basicRfConfig.myAddr = RX_ADDR;
    if(basicRfInit(&basicRfConfig) == HAL_RF_FAILED)
    {
        DEBUG_MSG_ASSERT;
    }
    basicRfReceiveOn();
 27c:	f7ff fffe 	bl	0 <basicRfReceiveOn>
 280:	2500      	movs	r5, #0
 282:	462f      	mov	r7, r5
 284:	462e      	mov	r6, r5
 286:	46a9      	mov	r9, r5
 288:	46a8      	mov	r8, r5
 28a:	46aa      	mov	sl, r5
D:\WkPjt\MStory2.0\Mango-Z1.Firmware\Z1.Src007.1ByteTxRx\src/zigbee_test.c:429

    // Main loop
    while (TRUE)
    {
        iteration ++;
 28c:	f10a 0a01 	add.w	sl, sl, #1	; 0x1
D:\WkPjt\MStory2.0\Mango-Z1.Firmware\Z1.Src007.1ByteTxRx\src/zigbee_test.c:431

        while(!basicRfPacketIsReady());
 290:	f7ff fffe 	bl	0 <basicRfPacketIsReady>
 294:	2800      	cmp	r0, #0
 296:	d0fb      	beq.n	290 <ZigBee_Test+0x290>
D:\WkPjt\MStory2.0\Mango-Z1.Firmware\Z1.Src007.1ByteTxRx\src/zigbee_test.c:433

        if(basicRfReceive((uint8*)&rxPacket, MAX_PAYLOAD_LENGTH, &rssi)>0) {
 298:	4c18      	ldr	r4, [pc, #96]	(2fc <ZigBee_Test+0x2fc>)
 29a:	2167      	movs	r1, #103
 29c:	f104 0008 	add.w	r0, r4, #8	; 0x8
 2a0:	f10d 0256 	add.w	r2, sp, #86	; 0x56
 2a4:	f7ff fffe 	bl	0 <basicRfReceive>
 2a8:	2800      	cmp	r0, #0
 2aa:	d06e      	beq.n	38a <ZigBee_Test+0x38a>
D:\WkPjt\MStory2.0\Mango-Z1.Firmware\Z1.Src007.1ByteTxRx\src/zigbee_test.c:439
			// Change byte order from network to host order
			UINT32_NTOH(rxPacket.seqNumber);
            segNumber = rxPacket.seqNumber;

            // Subtract old RSSI value from sum
            rxStats.rssiSum -= perRssiBuf[perRssiBufCounter];
 2ac:	aa16      	add	r2, sp, #88
 2ae:	eb02 0348 	add.w	r3, r2, r8, lsl #1
 2b2:	4641      	mov	r1, r8
D:\WkPjt\MStory2.0\Mango-Z1.Firmware\Z1.Src007.1ByteTxRx\src/zigbee_test.c:436
        while(!basicRfPacketIsReady());

        if(basicRfReceive((uint8*)&rxPacket, MAX_PAYLOAD_LENGTH, &rssi)>0) {
			// Change byte order from network to host order
			UINT32_NTOH(rxPacket.seqNumber);
            segNumber = rxPacket.seqNumber;
 2b4:	68a0      	ldr	r0, [r4, #8]
D:\WkPjt\MStory2.0\Mango-Z1.Firmware\Z1.Src007.1ByteTxRx\src/zigbee_test.c:439

            // Subtract old RSSI value from sum
            rxStats.rssiSum -= perRssiBuf[perRssiBufCounter];
 2b6:	f833 ec42 	ldrh.w	lr, [r3, #-66]
D:\WkPjt\MStory2.0\Mango-Z1.Firmware\Z1.Src007.1ByteTxRx\src/zigbee_test.c:445
            // Store new RSSI value in ring buffer, will add it to sum later
            perRssiBuf[perRssiBufCounter] =  rssi;

            // Add the new RSSI value to sum
            rxStats.rssiSum += perRssiBuf[perRssiBufCounter];
            if (++perRssiBufCounter == RSSI_AVG_WINDOW_SIZE) {
 2ba:	1c4b      	adds	r3, r1, #1
 2bc:	fa5f f883 	uxtb.w	r8, r3
 2c0:	f1b8 0f20 	cmp.w	r8, #32	; 0x20
 2c4:	bf08      	it	eq
 2c6:	f04f 0800 	moveq.w	r8, #0	; 0x0
D:\WkPjt\MStory2.0\Mango-Z1.Firmware\Z1.Src007.1ByteTxRx\src/zigbee_test.c:450
                perRssiBufCounter = 0;      // Wrap ring buffer counter
            }

            // Check if received packet is the expected packet
            if (rxStats.expectedSeqNum == segNumber) {
 2ca:	4287      	cmp	r7, r0
D:\WkPjt\MStory2.0\Mango-Z1.Firmware\Z1.Src007.1ByteTxRx\src/zigbee_test.c:441
            segNumber = rxPacket.seqNumber;

            // Subtract old RSSI value from sum
            rxStats.rssiSum -= perRssiBuf[perRssiBufCounter];
            // Store new RSSI value in ring buffer, will add it to sum later
            perRssiBuf[perRssiBufCounter] =  rssi;
 2cc:	f8bd 4056 	ldrh.w	r4, [sp, #86]
D:\WkPjt\MStory2.0\Mango-Z1.Firmware\Z1.Src007.1ByteTxRx\src/zigbee_test.c:450
            if (++perRssiBufCounter == RSSI_AVG_WINDOW_SIZE) {
                perRssiBufCounter = 0;      // Wrap ring buffer counter
            }

            // Check if received packet is the expected packet
            if (rxStats.expectedSeqNum == segNumber) {
 2d0:	d146      	bne.n	360 <ZigBee_Test+0x360>
D:\WkPjt\MStory2.0\Mango-Z1.Firmware\Z1.Src007.1ByteTxRx\src/zigbee_test.c:451
                rxStats.expectedSeqNum++;
 2d2:	3701      	adds	r7, #1
 2d4:	e04e      	b.n	374 <ZigBee_Test+0x374>
 2d6:	46c0      	nop			(mov r8, r8)
	...
 2e0:	00000014 	.word	0x00000014
 2e4:	00000053 	.word	0x00000053
 2e8:	00000092 	.word	0x00000092
 2ec:	000000d1 	.word	0x000000d1
 2f0:	40013800 	.word	0x40013800
 2f4:	00000110 	.word	0x00000110
 2f8:	0000011d 	.word	0x0000011d
 2fc:	00000000 	.word	0x00000000
 300:	00000135 	.word	0x00000135
 304:	0000014c 	.word	0x0000014c
 308:	00000176 	.word	0x00000176
 30c:	00000194 	.word	0x00000194
 310:	000001a3 	.word	0x000001a3
 314:	000001b3 	.word	0x000001b3
 318:	000001cb 	.word	0x000001cb
 31c:	000001da 	.word	0x000001da
 320:	000001f0 	.word	0x000001f0
 324:	00000209 	.word	0x00000209
 328:	00000222 	.word	0x00000222
 32c:	0000022e 	.word	0x0000022e
 330:	0000023b 	.word	0x0000023b
 334:	00000253 	.word	0x00000253
 338:	0000026e 	.word	0x0000026e
 33c:	00000008 	.word	0x00000008
 340:	00000100 	.word	0x00000100
 344:	00000277 	.word	0x00000277
 348:	0000000c 	.word	0x0000000c
 34c:	0000028e 	.word	0x0000028e
 350:	0000029e 	.word	0x0000029e
 354:	00000015 	.word	0x00000015
 358:	000002b8 	.word	0x000002b8
 35c:	0000001f 	.word	0x0000001f
 360:	f100 0201 	add.w	r2, r0, #1	; 0x1
D:\WkPjt\MStory2.0\Mango-Z1.Firmware\Z1.Src007.1ByteTxRx\src/zigbee_test.c:455
            }
            // If there is a jump in the sequence numbering
            // this means some packets in between has been lost.
            else if (rxStats.expectedSeqNum < segNumber){
 364:	d203      	bcs.n	36e <ZigBee_Test+0x36e>
D:\WkPjt\MStory2.0\Mango-Z1.Firmware\Z1.Src007.1ByteTxRx\src/zigbee_test.c:456
                rxStats.lostPkts += segNumber - rxStats.expectedSeqNum;
 366:	1833      	adds	r3, r6, r0
 368:	1bde      	subs	r6, r3, r7
D:\WkPjt\MStory2.0\Mango-Z1.Firmware\Z1.Src007.1ByteTxRx\src/zigbee_test.c:457
                rxStats.expectedSeqNum = segNumber + 1;
 36a:	4617      	mov	r7, r2
 36c:	e002      	b.n	374 <ZigBee_Test+0x374>
D:\WkPjt\MStory2.0\Mango-Z1.Firmware\Z1.Src007.1ByteTxRx\src/zigbee_test.c:464
            // If the sequence number is lower than the previous one,
            // we will assume a new data burst has started
            // and we will reset our statistics variables.
            else {
                // Update our expectations assuming this is a new burst
                rxStats.expectedSeqNum = segNumber + 1;
 36e:	2600      	movs	r6, #0
 370:	4617      	mov	r7, r2
 372:	46b1      	mov	r9, r6
D:\WkPjt\MStory2.0\Mango-Z1.Firmware\Z1.Src007.1ByteTxRx\src/zigbee_test.c:441
            segNumber = rxPacket.seqNumber;

            // Subtract old RSSI value from sum
            rxStats.rssiSum -= perRssiBuf[perRssiBufCounter];
            // Store new RSSI value in ring buffer, will add it to sum later
            perRssiBuf[perRssiBufCounter] =  rssi;
 374:	aa16      	add	r2, sp, #88
 376:	eb02 0341 	add.w	r3, r2, r1, lsl #1
 37a:	f823 4c42 	strh.w	r4, [r3, #-66]
D:\WkPjt\MStory2.0\Mango-Z1.Firmware\Z1.Src007.1ByteTxRx\src/zigbee_test.c:444

            // Add the new RSSI value to sum
            rxStats.rssiSum += perRssiBuf[perRssiBufCounter];
 37e:	192b      	adds	r3, r5, r4
 380:	ebce 0303 	rsb	r3, lr, r3
 384:	b29d      	uxth	r5, r3
D:\WkPjt\MStory2.0\Mango-Z1.Firmware\Z1.Src007.1ByteTxRx\src/zigbee_test.c:468
                // Update our expectations assuming this is a new burst
                rxStats.expectedSeqNum = segNumber + 1;
                rxStats.rcvdPkts = 0;
                rxStats.lostPkts = 0;
            }
            rxStats.rcvdPkts++;
 386:	f109 0901 	add.w	r9, r9, #1	; 0x1
D:\WkPjt\MStory2.0\Mango-Z1.Firmware\Z1.Src007.1ByteTxRx\src/zigbee_test.c:471
        }

        if(0 == (iteration & ITERATION_COUNT))
 38a:	f01a 0f0f 	tst.w	sl, #15	; 0xf
 38e:	f47f af7d 	bne.w	28c <ZigBee_Test+0x28c>
D:\WkPjt\MStory2.0\Mango-Z1.Firmware\Z1.Src007.1ByteTxRx\src/zigbee_test.c:473
        {
            led_rx_ok();
 392:	f7ff fffe 	bl	0 <ZigBee_Test>
D:\WkPjt\MStory2.0\Mango-Z1.Firmware\Z1.Src007.1ByteTxRx\src/zigbee_test.c:474
            printf("rcvP: %d, lostP: %d, PER:%5.2f %%, RSSI:%5.2f dBm\n",
 396:	4630      	mov	r0, r6
 398:	f7ff fffe 	bl	0 <__aeabi_ui2f>
 39c:	4604      	mov	r4, r0
 39e:	eb09 0006 	add.w	r0, r9, r6
 3a2:	f7ff fffe 	bl	0 <__aeabi_ui2f>
 3a6:	4601      	mov	r1, r0
 3a8:	4620      	mov	r0, r4
 3aa:	f7ff fffe 	bl	0 <__aeabi_fdiv>
 3ae:	4944      	ldr	r1, [pc, #272]	(114 <__aeabi_fmul+0x114>)
 3b0:	f7ff fffe 	bl	0 <__aeabi_fmul>
 3b4:	f7ff fffe 	bl	0 <__aeabi_f2d>
 3b8:	b22b      	sxth	r3, r5
 3ba:	e9cd 0100 	strd	r0, r1, [sp]
 3be:	2020      	movs	r0, #32
 3c0:	fb93 f0f0 	sdiv	r0, r3, r0
 3c4:	f7ff fffe 	bl	0 <__aeabi_i2f>
 3c8:	f7ff fffe 	bl	0 <__aeabi_f2d>
 3cc:	4632      	mov	r2, r6
 3ce:	e9cd 0102 	strd	r0, r1, [sp, #8]
 3d2:	4649      	mov	r1, r9
 3d4:	483b      	ldr	r0, [pc, #236]	(4c4 <ZigBee_Test+0x4c4>)
 3d6:	f7ff fffe 	bl	0 <printf>
 3da:	e757      	b.n	28c <ZigBee_Test+0x28c>
perTest_appTransmitter():
D:\WkPjt\MStory2.0\Mango-Z1.Firmware\Z1.Src007.1ByteTxRx\src/zigbee_test.c:507
	uint8  n;
    uint32 iteration = 0;
    u8     ch;

    // Initialize BasicRF
    basicRfConfig.myAddr = TX_ADDR;
 3dc:	483a      	ldr	r0, [pc, #232]	(4c8 <ZigBee_Test+0x4c8>)
 3de:	f242 5320 	movw	r3, #9504	; 0x2520
 3e2:	8003      	strh	r3, [r0, #0]
D:\WkPjt\MStory2.0\Mango-Z1.Firmware\Z1.Src007.1ByteTxRx\src/zigbee_test.c:508
    if(basicRfInit(&basicRfConfig) == HAL_RF_FAILED) {
 3e4:	f7ff fffe 	bl	0 <basicRfInit>
 3e8:	2801      	cmp	r0, #1
 3ea:	d104      	bne.n	3f6 <ZigBee_Test+0x3f6>
D:\WkPjt\MStory2.0\Mango-Z1.Firmware\Z1.Src007.1ByteTxRx\src/zigbee_test.c:509
        DEBUG_MSG_ASSERT;
 3ec:	4837      	ldr	r0, [pc, #220]	(4cc <ZigBee_Test+0x4cc>)
 3ee:	f240 11fd 	movw	r1, #509	; 0x1fd
 3f2:	f7ff fffe 	bl	0 <DebugMsg_Assert>
D:\WkPjt\MStory2.0\Mango-Z1.Firmware\Z1.Src007.1ByteTxRx\src/zigbee_test.c:513
    }
    
    // Set TX output power
    CC2520_REGWR8(CC2520_TXPOWER, CC2520_TXPOWER_4_DBM);
 3f6:	2030      	movs	r0, #48
 3f8:	21f7      	movs	r1, #247
 3fa:	f7ff fffe 	bl	0 <CC2520_REGWR8>
D:\WkPjt\MStory2.0\Mango-Z1.Firmware\Z1.Src007.1ByteTxRx\src/zigbee_test.c:515

    printf("PACKET_SIZE sizeof(perTestPacket_t) is %d\n", PACKET_SIZE);
 3fe:	2168      	movs	r1, #104
 400:	4833      	ldr	r0, [pc, #204]	(4d0 <ZigBee_Test+0x4d0>)
 402:	f7ff fffe 	bl	0 <printf>
D:\WkPjt\MStory2.0\Mango-Z1.Firmware\Z1.Src007.1ByteTxRx\src/zigbee_test.c:518

    // Set burst size
    printf("Select Burst Size\n");
 406:	4833      	ldr	r0, [pc, #204]	(d0 <puts+0xd0>)
 408:	f7ff fffe 	bl	0 <puts>
D:\WkPjt\MStory2.0\Mango-Z1.Firmware\Z1.Src007.1ByteTxRx\src/zigbee_test.c:519
    printf("1> BURST_SIZE 1000\n");
 40c:	4832      	ldr	r0, [pc, #200]	(cc <puts+0xcc>)
 40e:	f7ff fffe 	bl	0 <puts>
D:\WkPjt\MStory2.0\Mango-Z1.Firmware\Z1.Src007.1ByteTxRx\src/zigbee_test.c:520
    printf("2> BURST_SIZE 10000\n");
 412:	4832      	ldr	r0, [pc, #200]	(cc <puts+0xcc>)
 414:	f7ff fffe 	bl	0 <puts>
D:\WkPjt\MStory2.0\Mango-Z1.Firmware\Z1.Src007.1ByteTxRx\src/zigbee_test.c:521
    printf("3> BURST_SIZE 100000\n");
 418:	4831      	ldr	r0, [pc, #196]	(c8 <puts+0xc8>)
 41a:	f7ff fffe 	bl	0 <puts>
D:\WkPjt\MStory2.0\Mango-Z1.Firmware\Z1.Src007.1ByteTxRx\src/zigbee_test.c:522
    printf("4> BURST_SIZE 1000000\n");
 41e:	4831      	ldr	r0, [pc, #196]	(c8 <puts+0xc8>)
 420:	f7ff fffe 	bl	0 <puts>
D:\WkPjt\MStory2.0\Mango-Z1.Firmware\Z1.Src007.1ByteTxRx\src/zigbee_test.c:524

    ch = USART_GetCharacter(USART1);
 424:	4830      	ldr	r0, [pc, #192]	(c4 <USART_GetCharacter+0xc4>)
 426:	f7ff fffe 	bl	0 <USART_GetCharacter>
 42a:	4604      	mov	r4, r0
D:\WkPjt\MStory2.0\Mango-Z1.Firmware\Z1.Src007.1ByteTxRx\src/zigbee_test.c:525
    printf(" is selected\n");
 42c:	482f      	ldr	r0, [pc, #188]	(4ec <ZigBee_Test+0x4ec>)
 42e:	f7ff fffe 	bl	0 <puts>
D:\WkPjt\MStory2.0\Mango-Z1.Firmware\Z1.Src007.1ByteTxRx\src/zigbee_test.c:527

    switch((char)ch)
 432:	b261      	sxtb	r1, r4
 434:	2933      	cmp	r1, #51
 436:	d009      	beq.n	44c <ZigBee_Test+0x44c>
 438:	2934      	cmp	r1, #52
 43a:	d009      	beq.n	450 <ZigBee_Test+0x450>
 43c:	f242 7310 	movw	r3, #10000	; 0x2710
 440:	2932      	cmp	r1, #50
 442:	bf0c      	ite	eq
 444:	461e      	moveq	r6, r3
 446:	f44f 767a 	movne.w	r6, #1000	; 0x3e8
 44a:	e002      	b.n	452 <ZigBee_Test+0x452>
 44c:	4e28      	ldr	r6, [pc, #160]	(4f0 <ZigBee_Test+0x4f0>)
 44e:	e000      	b.n	452 <ZigBee_Test+0x452>
 450:	4e28      	ldr	r6, [pc, #160]	(4f4 <ZigBee_Test+0x4f4>)
D:\WkPjt\MStory2.0\Mango-Z1.Firmware\Z1.Src007.1ByteTxRx\src/zigbee_test.c:550
    default:
        burstSize = BURST_SIZE_1;
        break;
    }

    printf("Selected Burst Size: %d\n", burstSize);
 452:	4631      	mov	r1, r6
 454:	4828      	ldr	r0, [pc, #160]	(4f8 <ZigBee_Test+0x4f8>)
 456:	f7ff fffe 	bl	0 <printf>
D:\WkPjt\MStory2.0\Mango-Z1.Firmware\Z1.Src007.1ByteTxRx\src/zigbee_test.c:554
    
    // Basic RF puts on receiver before transmission of packet, and turns off
    // after packet is sent
    basicRfReceiveOff();
 45a:	f7ff fffe 	bl	0 <basicRfReceiveOff>
D:\WkPjt\MStory2.0\Mango-Z1.Firmware\Z1.Src007.1ByteTxRx\src/zigbee_test.c:557

    // Initalise packet payload
    txPacket.seqNumber = 0;
 45e:	4b1a      	ldr	r3, [pc, #104]	(4c8 <ZigBee_Test+0x4c8>)
 460:	2200      	movs	r2, #0
 462:	671a      	str	r2, [r3, #112]
D:\WkPjt\MStory2.0\Mango-Z1.Firmware\Z1.Src007.1ByteTxRx\src/zigbee_test.c:559
    for(n = 0; n < sizeof(txPacket.padding); n++) {
        txPacket.padding[n] = n;
 464:	4b25      	ldr	r3, [pc, #148]	(4fc <ZigBee_Test+0x4fc>)
 466:	189b      	adds	r3, r3, r2
 468:	711a      	strb	r2, [r3, #4]
 46a:	3201      	adds	r2, #1
D:\WkPjt\MStory2.0\Mango-Z1.Firmware\Z1.Src007.1ByteTxRx\src/zigbee_test.c:558
    // after packet is sent
    basicRfReceiveOff();

    // Initalise packet payload
    txPacket.seqNumber = 0;
    for(n = 0; n < sizeof(txPacket.padding); n++) {
 46c:	2a64      	cmp	r2, #100
 46e:	d1f9      	bne.n	464 <ZigBee_Test+0x464>
D:\WkPjt\MStory2.0\Mango-Z1.Firmware\Z1.Src007.1ByteTxRx\src/zigbee_test.c:565
    }

    // Main loop
    while (TRUE)
    {
        printf("Press Any Key to start sending data ...\n");
 470:	4823      	ldr	r0, [pc, #140]	(500 <ZigBee_Test+0x500>)
 472:	f7ff fffe 	bl	0 <puts>
D:\WkPjt\MStory2.0\Mango-Z1.Firmware\Z1.Src007.1ByteTxRx\src/zigbee_test.c:566
        USART_GetCharacter(USART1);
 476:	481c      	ldr	r0, [pc, #112]	(74 <USART_GetCharacter+0x74>)
 478:	f7ff fffe 	bl	0 <USART_GetCharacter>
 47c:	2400      	movs	r4, #0
D:\WkPjt\MStory2.0\Mango-Z1.Firmware\Z1.Src007.1ByteTxRx\src/zigbee_test.c:581
            // Delay(3);

            // Make sure sequence number has network byte order
            UINT32_HTON(txPacket.seqNumber);

            basicRfSendPacket(RX_ADDR, (uint8*)&txPacket, PACKET_SIZE);
 47e:	4d12      	ldr	r5, [pc, #72]	(4c8 <ZigBee_Test+0x4c8>)
 480:	2268      	movs	r2, #104
 482:	f64b 60ef 	movw	r0, #48879	; 0xbeef
 486:	f105 0170 	add.w	r1, r5, #112	; 0x70
 48a:	f7ff fffe 	bl	0 <basicRfSendPacket>
D:\WkPjt\MStory2.0\Mango-Z1.Firmware\Z1.Src007.1ByteTxRx\src/zigbee_test.c:585

            // Change byte order back to host order before increment
            UINT32_NTOH(txPacket.seqNumber);
            txPacket.seqNumber++;
 48e:	6f2b      	ldr	r3, [r5, #112]
D:\WkPjt\MStory2.0\Mango-Z1.Firmware\Z1.Src007.1ByteTxRx\src/zigbee_test.c:570
        printf("Press Any Key to start sending data ...\n");
        USART_GetCharacter(USART1);

        while (TRUE)
        {
            iteration ++;
 490:	3401      	adds	r4, #1
D:\WkPjt\MStory2.0\Mango-Z1.Firmware\Z1.Src007.1ByteTxRx\src/zigbee_test.c:585

            basicRfSendPacket(RX_ADDR, (uint8*)&txPacket, PACKET_SIZE);

            // Change byte order back to host order before increment
            UINT32_NTOH(txPacket.seqNumber);
            txPacket.seqNumber++;
 492:	3301      	adds	r3, #1
D:\WkPjt\MStory2.0\Mango-Z1.Firmware\Z1.Src007.1ByteTxRx\src/zigbee_test.c:587

            if(0 == (iteration & ITERATION_COUNT))
 494:	f014 0f0f 	tst.w	r4, #15	; 0xf
D:\WkPjt\MStory2.0\Mango-Z1.Firmware\Z1.Src007.1ByteTxRx\src/zigbee_test.c:585

            basicRfSendPacket(RX_ADDR, (uint8*)&txPacket, PACKET_SIZE);

            // Change byte order back to host order before increment
            UINT32_NTOH(txPacket.seqNumber);
            txPacket.seqNumber++;
 498:	672b      	str	r3, [r5, #112]
D:\WkPjt\MStory2.0\Mango-Z1.Firmware\Z1.Src007.1ByteTxRx\src/zigbee_test.c:587

            if(0 == (iteration & ITERATION_COUNT))
 49a:	d105      	bne.n	4a8 <ZigBee_Test+0x4a8>
D:\WkPjt\MStory2.0\Mango-Z1.Firmware\Z1.Src007.1ByteTxRx\src/zigbee_test.c:589
            {
                led_tx_ok();
 49c:	f7ff fffe 	bl	0 <ZigBee_Test>
D:\WkPjt\MStory2.0\Mango-Z1.Firmware\Z1.Src007.1ByteTxRx\src/zigbee_test.c:590
                printf("sntP: %d\n", txPacket.seqNumber);
 4a0:	4818      	ldr	r0, [pc, #96]	(504 <ZigBee_Test+0x504>)
 4a2:	6f29      	ldr	r1, [r5, #112]
 4a4:	f7ff fffe 	bl	0 <printf>
D:\WkPjt\MStory2.0\Mango-Z1.Firmware\Z1.Src007.1ByteTxRx\src/zigbee_test.c:572

        while (TRUE)
        {
            iteration ++;

            if (pktsSent >= burstSize)
 4a8:	42b4      	cmp	r4, r6
 4aa:	d3e8      	bcc.n	47e <ZigBee_Test+0x47e>
D:\WkPjt\MStory2.0\Mango-Z1.Firmware\Z1.Src007.1ByteTxRx\src/zigbee_test.c:599
        }

        // Reset statistics and sequence number
        iteration = 0;
        pktsSent = 0;
        txPacket.seqNumber = 0;
 4ac:	4b06      	ldr	r3, [pc, #24]	(4c8 <ZigBee_Test+0x4c8>)
 4ae:	2200      	movs	r2, #0
 4b0:	671a      	str	r2, [r3, #112]
 4b2:	e7dd      	b.n	470 <ZigBee_Test+0x470>
ZigBee_Test():
D:\WkPjt\MStory2.0\Mango-Z1.Firmware\Z1.Src007.1ByteTxRx\src/zigbee_test.c:708
        case '6':
            perTest_appTransmitter();
            break;
        }

        if('x' == (char)ch)
 4b4:	2d78      	cmp	r5, #120
 4b6:	f47f adf7 	bne.w	a8 <ZigBee_Test+0xa8>
D:\WkPjt\MStory2.0\Mango-Z1.Firmware\Z1.Src007.1ByteTxRx\src/zigbee_test.c:713
        {
            break;
        }
    }
}
 4ba:	b016      	add	sp, #88
 4bc:	e8bd 87f0 	ldmia.w	sp!, {r4, r5, r6, r7, r8, r9, sl, pc}
 4c0:	42c80000 	.word	0x42c80000
 4c4:	000002c9 	.word	0x000002c9
 4c8:	00000000 	.word	0x00000000
 4cc:	00000033 	.word	0x00000033
 4d0:	000002fc 	.word	0x000002fc
 4d4:	00000327 	.word	0x00000327
 4d8:	00000339 	.word	0x00000339
 4dc:	0000034c 	.word	0x0000034c
 4e0:	00000360 	.word	0x00000360
 4e4:	00000375 	.word	0x00000375
 4e8:	40013800 	.word	0x40013800
 4ec:	00000110 	.word	0x00000110
 4f0:	000186a0 	.word	0x000186a0
 4f4:	000f4240 	.word	0x000f4240
 4f8:	0000038b 	.word	0x0000038b
 4fc:	00000070 	.word	0x00000070
 500:	000003a4 	.word	0x000003a4
 504:	000003cc 	.word	0x000003cc
